target datalayout = "e-m:e-p270:32:32-p271:32:32-p272:64:64-i64:64-i128:128-f80:128-n8:16:32:64-S128"
target triple = "x86_64-unknown-linux-gnu"

%"struct.google::SiteFlag" = type { ptr, ptr, i64, ptr }
%"class.std::unique_ptr" = type { %"struct.std::__uniq_ptr_data" }
%"struct.std::__uniq_ptr_data" = type { %"class.std::__uniq_ptr_impl" }
%"class.std::__uniq_ptr_impl" = type { %"class.std::tuple" }
%"class.std::tuple" = type { %"struct.std::_Tuple_impl" }
%"struct.std::_Tuple_impl" = type { %"struct.std::_Head_base.1" }
%"struct.std::_Head_base.1" = type { ptr }
%"class.folly::Range" = type { ptr, ptr }
%"class.proxygen::HPACKEncoderBase" = type <{ ptr, %"class.proxygen::HPACKEncodeBuffer", i8, [7 x i8] }>
%"class.proxygen::HPACKEncodeBuffer" = type <{ %"class.folly::IOBufQueue", ptr, %"class.folly::io::QueueAppender", i32, i32, i32, [4 x i8] }>
%"class.folly::IOBufQueue" = type { %"struct.folly::IOBufQueue::Options", i64, %"class.std::unique_ptr", ptr, ptr, %"struct.folly::IOBufQueue::WritableRangeCacheData", ptr }
%"struct.folly::IOBufQueue::Options" = type { i8 }
%"struct.folly::IOBufQueue::WritableRangeCacheData" = type <{ %"struct.std::pair", i8, [7 x i8] }>
%"struct.std::pair" = type { ptr, ptr }
%"class.folly::io::QueueAppender" = type { %"class.folly::IOBufQueue::WritableRangeCache", i64 }
%"class.folly::IOBufQueue::WritableRangeCache" = type { %"struct.folly::IOBufQueue::WritableRangeCacheData", ptr }
%"class.proxygen::HPACKHeaderName" = type { ptr }
%"class.google::LogMessage" = type { ptr, ptr, %"struct.google::LogMessageTime" }
%"struct.google::LogMessageTime" = type { %struct.tm, i64, i32, i64 }
%struct.tm = type { i32, i32, i32, i32, i32, i32, i32, i32, i32, i64, ptr }
%"class.google::LogMessageVoidify" = type { i8 }

@.str.1 = private unnamed_addr constant [145 x i8] c"generated/home/dtcxzyw/WorkSpace/Projects/compilers/llvm-opt-benchmark/bench/proxygen/proxygen/proxygen/lib/http/codec/compress/HPACKEncoder.cpp\00", align 1
@_ZZN8proxygen12HPACKEncoder13encodeLiteralERKNS_15HPACKHeaderNameEN5folly5RangeIPKcEEjRKNS_5HPACK11InstructionEE8vlocal__ = internal global %"struct.google::SiteFlag" zeroinitializer, align 8
@_ZN3fLI7FLAGS_vE = external global i32, align 4
@.str.5 = private unnamed_addr constant [21 x i8] c"encoding name index=\00", align 1

; Function Attrs: mustprogress nounwind uwtable
define linkonce_odr void @_ZN5folly5RangeIPKcEC2ISaIcES2_TnNS_6detail13IsCharPointerIT0_E10const_typeELi0EEERKNSt7__cxx1112basic_stringIcSt11char_traitsIcET_EE(ptr noundef nonnull align 8 dereferenceable(16) %this, ptr noundef nonnull align 8 dereferenceable(32) %str) unnamed_addr #5 comdat align 2 {
entry:
  %this.addr = alloca ptr, align 8
  %str.addr = alloca ptr, align 8
  store ptr %this, ptr %this.addr, align 8
  store ptr %str, ptr %str.addr, align 8
  %this1 = load ptr, ptr %this.addr, align 8
  %b_ = getelementptr inbounds %"class.folly::Range", ptr %this1, i32 0, i32 0
  %0 = load ptr, ptr %str.addr, align 8
  %call = call noundef ptr @_ZNKSt7__cxx1112basic_stringIcSt11char_traitsIcESaIcEE4dataEv(ptr noundef nonnull align 8 dereferenceable(32) %0) #3
  store ptr %call, ptr %b_, align 8
  %e_ = getelementptr inbounds %"class.folly::Range", ptr %this1, i32 0, i32 1
  %b_2 = getelementptr inbounds %"class.folly::Range", ptr %this1, i32 0, i32 0
  %1 = load ptr, ptr %b_2, align 8
  %2 = load ptr, ptr %str.addr, align 8
  %call3 = call noundef i64 @_ZNKSt7__cxx1112basic_stringIcSt11char_traitsIcESaIcEE4sizeEv(ptr noundef nonnull align 8 dereferenceable(32) %2) #3
  %add.ptr = getelementptr inbounds i8, ptr %1, i64 %call3
  store ptr %add.ptr, ptr %e_, align 8
  ret void
}

; Function Attrs: mustprogress nounwind uwtable
define linkonce_odr noundef nonnull align 8 dereferenceable(32) ptr @_ZNK8proxygen15HPACKHeaderName3getB5cxx11Ev(ptr noundef nonnull align 8 dereferenceable(8) %this) #5 comdat align 2 {
entry:
  %this.addr = alloca ptr, align 8
  store ptr %this, ptr %this.addr, align 8
  %this1 = load ptr, ptr %this.addr, align 8
  %address_ = getelementptr inbounds %"class.proxygen::HPACKHeaderName", ptr %this1, i32 0, i32 0
  %0 = load ptr, ptr %address_, align 8
  ret ptr %0
}

; Function Attrs: mustprogress nounwind uwtable
define linkonce_odr void @_ZN6google17LogMessageVoidifyanERSo(ptr noundef nonnull align 1 dereferenceable(1) %this, ptr noundef nonnull align 8 dereferenceable(8) %0) #5 comdat align 2 {
entry:
  %this.addr = alloca ptr, align 8
  %.addr = alloca ptr, align 8
  store ptr %this, ptr %this.addr, align 8
  store ptr %0, ptr %.addr, align 8
  ret void
}

; Function Attrs: mustprogress nounwind uwtable
define linkonce_odr void @_ZN6google17LogMessageVoidifyC2Ev(ptr noundef nonnull align 1 dereferenceable(1) %this) unnamed_addr #5 comdat align 2 {
entry:
  %this.addr = alloca ptr, align 8
  store ptr %this, ptr %this.addr, align 8
  ret void
}

; Function Attrs: mustprogress uwtable
define void @_ZN8proxygen12HPACKEncoder13encodeLiteralERKNS_15HPACKHeaderNameEN5folly5RangeIPKcEEjRKNS_5HPACK11InstructionE(ptr noundef nonnull align 8 dereferenceable(236) %this, ptr noundef nonnull align 8 dereferenceable(8) %name, ptr %value.coerce0, ptr %value.coerce1, i32 noundef %nameIndex, ptr noundef nonnull align 1 dereferenceable(2) %instruction) #4 align 2 personality ptr @__gxx_personality_v0 {
entry:
  %value = alloca %"class.folly::Range", align 8
  %this.addr = alloca ptr, align 8
  %name.addr = alloca ptr, align 8
  %nameIndex.addr = alloca i32, align 4
  %instruction.addr = alloca ptr, align 8
  %verbose_level__ = alloca i32, align 4
  %tmp = alloca i8, align 1
  %ref.tmp = alloca %"class.google::LogMessageVoidify", align 1
  %ref.tmp6 = alloca %"class.google::LogMessage", align 8
  %cleanup.cond = alloca i1, align 1
  %exn.slot = alloca ptr, align 8
  %ehselector.slot = alloca i32, align 4
  %agg.tmp = alloca %"class.folly::Range", align 8
  %agg.tmp24 = alloca %"class.folly::Range", align 8
  %0 = getelementptr inbounds { ptr, ptr }, ptr %value, i32 0, i32 0
  store ptr %value.coerce0, ptr %0, align 8
  %1 = getelementptr inbounds { ptr, ptr }, ptr %value, i32 0, i32 1
  store ptr %value.coerce1, ptr %1, align 8
  store ptr %this, ptr %this.addr, align 8
  store ptr %name, ptr %name.addr, align 8
  store i32 %nameIndex, ptr %nameIndex.addr, align 4
  store ptr %instruction, ptr %instruction.addr, align 8
  %this1 = load ptr, ptr %this.addr, align 8
  %2 = load i32, ptr %nameIndex.addr, align 4
  %tobool = icmp ne i32 %2, 0
  br i1 %tobool, label %if.then, label %if.else

if.then:                                          ; preds = %entry
  store i32 10, ptr %verbose_level__, align 4
  %3 = load ptr, ptr @_ZZN8proxygen12HPACKEncoder13encodeLiteralERKNS_15HPACKHeaderNameEN5folly5RangeIPKcEEjRKNS_5HPACK11InstructionEE8vlocal__, align 8
  %cmp = icmp eq ptr %3, null
  store i1 false, ptr %cleanup.cond, align 1
  br i1 %cmp, label %cond.true, label %cond.false

cond.true:                                        ; preds = %if.then
  %4 = load i32, ptr %verbose_level__, align 4
  %call = call noundef zeroext i1 @_ZN6google11InitVLOG3__EPNS_8SiteFlagEPiPKci(ptr noundef @_ZZN8proxygen12HPACKEncoder13encodeLiteralERKNS_15HPACKHeaderNameEN5folly5RangeIPKcEEjRKNS_5HPACK11InstructionEE8vlocal__, ptr noundef @_ZN3fLI7FLAGS_vE, ptr noundef @.str.1, i32 noundef %4)
  br label %cond.end

cond.false:                                       ; preds = %if.then
  %5 = load ptr, ptr @_ZZN8proxygen12HPACKEncoder13encodeLiteralERKNS_15HPACKHeaderNameEN5folly5RangeIPKcEEjRKNS_5HPACK11InstructionEE8vlocal__, align 8
  %6 = load i32, ptr %5, align 4
  %7 = load i32, ptr %verbose_level__, align 4
  %cmp2 = icmp sge i32 %6, %7
  br label %cond.end

cond.end:                                         ; preds = %cond.false, %cond.true
  %cond = phi i1 [ %call, %cond.true ], [ %cmp2, %cond.false ]
  %frombool = zext i1 %cond to i8
  store i8 %frombool, ptr %tmp, align 1
  %8 = load i8, ptr %tmp, align 1
  %tobool3 = trunc i8 %8 to i1
  br i1 %tobool3, label %cond.false5, label %cond.true4

cond.true4:                                       ; preds = %cond.end
  br label %cond.end13

cond.false5:                                      ; preds = %cond.end
  call void @_ZN6google17LogMessageVoidifyC2Ev(ptr noundef nonnull align 1 dereferenceable(1) %ref.tmp)
  call void @_ZN6google10LogMessageC1EPKci(ptr noundef nonnull align 8 dereferenceable(96) %ref.tmp6, ptr noundef @.str.1, i32 noundef 132)
  store i1 true, ptr %cleanup.cond, align 1
  %call7 = invoke noundef nonnull align 8 dereferenceable(8) ptr @_ZN6google10LogMessage6streamEv(ptr noundef nonnull align 8 dereferenceable(96) %ref.tmp6)
          to label %invoke.cont unwind label %lpad

invoke.cont:                                      ; preds = %cond.false5
  %call9 = invoke noundef nonnull align 8 dereferenceable(8) ptr @_ZStlsISt11char_traitsIcEERSt13basic_ostreamIcT_ES5_PKc(ptr noundef nonnull align 8 dereferenceable(8) %call7, ptr noundef @.str.5)
          to label %invoke.cont8 unwind label %lpad

invoke.cont8:                                     ; preds = %invoke.cont
  %9 = load i32, ptr %nameIndex.addr, align 4
  %call11 = invoke noundef nonnull align 8 dereferenceable(8) ptr @_ZNSolsEj(ptr noundef nonnull align 8 dereferenceable(8) %call9, i32 noundef %9)
          to label %invoke.cont10 unwind label %lpad

invoke.cont10:                                    ; preds = %invoke.cont8
  invoke void @_ZN6google17LogMessageVoidifyanERSo(ptr noundef nonnull align 1 dereferenceable(1) %ref.tmp, ptr noundef nonnull align 8 dereferenceable(8) %call11)
          to label %invoke.cont12 unwind label %lpad

invoke.cont12:                                    ; preds = %invoke.cont10
  br label %cond.end13

cond.end13:                                       ; preds = %invoke.cont12, %cond.true4
  %cleanup.is_active = load i1, ptr %cleanup.cond, align 1
  br i1 %cleanup.is_active, label %cleanup.action, label %cleanup.done

cleanup.action:                                   ; preds = %cond.end13
  call void @_ZN6google10LogMessageD1Ev(ptr noundef nonnull align 8 dereferenceable(96) %ref.tmp6) #3
  br label %cleanup.done

cleanup.done:                                     ; preds = %cleanup.action, %cond.end13
  %streamBuffer_ = getelementptr inbounds %"class.proxygen::HPACKEncoderBase", ptr %this1, i32 0, i32 1
  %10 = load i32, ptr %nameIndex.addr, align 4
  %conv = zext i32 %10 to i64
  %11 = load ptr, ptr %instruction.addr, align 8
  %call17 = call noundef i32 @_ZN8proxygen17HPACKEncodeBuffer13encodeIntegerEmRKNS_5HPACK11InstructionE(ptr noundef nonnull align 8 dereferenceable(132) %streamBuffer_, i64 noundef %conv, ptr noundef nonnull align 1 dereferenceable(2) %11)
  br label %if.end

lpad:                                             ; preds = %invoke.cont10, %invoke.cont8, %invoke.cont, %cond.false5
  %12 = landingpad { ptr, i32 }
          cleanup
  %13 = extractvalue { ptr, i32 } %12, 0
  store ptr %13, ptr %exn.slot, align 8
  %14 = extractvalue { ptr, i32 } %12, 1
  store i32 %14, ptr %ehselector.slot, align 4
  %cleanup.is_active14 = load i1, ptr %cleanup.cond, align 1
  br i1 %cleanup.is_active14, label %cleanup.action15, label %cleanup.done16

cleanup.action15:                                 ; preds = %lpad
  call void @_ZN6google10LogMessageD1Ev(ptr noundef nonnull align 8 dereferenceable(96) %ref.tmp6) #3
  br label %cleanup.done16

cleanup.done16:                                   ; preds = %cleanup.action15, %lpad
  br label %eh.resume

if.else:                                          ; preds = %entry
  %streamBuffer_18 = getelementptr inbounds %"class.proxygen::HPACKEncoderBase", ptr %this1, i32 0, i32 1
  %15 = load ptr, ptr %instruction.addr, align 8
  %call19 = call noundef i32 @_ZN8proxygen17HPACKEncodeBuffer13encodeIntegerEmRKNS_5HPACK11InstructionE(ptr noundef nonnull align 8 dereferenceable(132) %streamBuffer_18, i64 noundef 0, ptr noundef nonnull align 1 dereferenceable(2) %15)
  %streamBuffer_20 = getelementptr inbounds %"class.proxygen::HPACKEncoderBase", ptr %this1, i32 0, i32 1
  %16 = load ptr, ptr %name.addr, align 8
  %call21 = call noundef nonnull align 8 dereferenceable(32) ptr @_ZNK8proxygen15HPACKHeaderName3getB5cxx11Ev(ptr noundef nonnull align 8 dereferenceable(8) %16)
  call void @_ZN5folly5RangeIPKcEC2ISaIcES2_TnNS_6detail13IsCharPointerIT0_E10const_typeELi0EEERKNSt7__cxx1112basic_stringIcSt11char_traitsIcET_EE(ptr noundef nonnull align 8 dereferenceable(16) %agg.tmp, ptr noundef nonnull align 8 dereferenceable(32) %call21)
  %17 = getelementptr inbounds { ptr, ptr }, ptr %agg.tmp, i32 0, i32 0
  %18 = load ptr, ptr %17, align 8
  %19 = getelementptr inbounds { ptr, ptr }, ptr %agg.tmp, i32 0, i32 1
  %20 = load ptr, ptr %19, align 8
  %call22 = call noundef i32 @_ZN8proxygen17HPACKEncodeBuffer13encodeLiteralEN5folly5RangeIPKcEE(ptr noundef nonnull align 8 dereferenceable(132) %streamBuffer_20, ptr %18, ptr %20)
  br label %if.end

if.end:                                           ; preds = %if.else, %cleanup.done
  %streamBuffer_23 = getelementptr inbounds %"class.proxygen::HPACKEncoderBase", ptr %this1, i32 0, i32 1
  call void @llvm.memcpy.p0.p0.i64(ptr align 8 %agg.tmp24, ptr align 8 %value, i64 16, i1 false)
  %21 = getelementptr inbounds { ptr, ptr }, ptr %agg.tmp24, i32 0, i32 0
  %22 = load ptr, ptr %21, align 8
  %23 = getelementptr inbounds { ptr, ptr }, ptr %agg.tmp24, i32 0, i32 1
  %24 = load ptr, ptr %23, align 8
  %call25 = call noundef i32 @_ZN8proxygen17HPACKEncodeBuffer13encodeLiteralEN5folly5RangeIPKcEE(ptr noundef nonnull align 8 dereferenceable(132) %streamBuffer_23, ptr %22, ptr %24)
  ret void

eh.resume:                                        ; preds = %cleanup.done16
  %exn = load ptr, ptr %exn.slot, align 8
  %sel = load i32, ptr %ehselector.slot, align 4
  %lpad.val = insertvalue { ptr, i32 } poison, ptr %exn, 0
  %lpad.val26 = insertvalue { ptr, i32 } %lpad.val, i32 %sel, 1
  resume { ptr, i32 } %lpad.val26
}