; Function Attrs: mustprogress uwtable
define void @_ZN8proxygen12HPACKEncoder13encodeLiteralERKNS_15HPACKHeaderNameEN5folly5RangeIPKcEEjRKNS_5HPACK11InstructionE(ptr noundef nonnull align 8 dereferenceable(236) %this, ptr nocapture noundef nonnull readonly align 8 dereferenceable(8) %name, ptr %value.coerce0, ptr %value.coerce1, i32 noundef %nameIndex, ptr noundef nonnull align 1 dereferenceable(2) %instruction) local_unnamed_addr #3 align 2 personality ptr @__gxx_personality_v0 {
entry:
  %ref.tmp6 = alloca %"class.google::LogMessage", align 8
  %tobool.not = icmp eq i32 %nameIndex, 0
  br i1 %tobool.not, label %if.else, label %if.then

if.then:                                          ; preds = %entry
  %0 = load ptr, ptr @_ZZN8proxygen12HPACKEncoder13encodeLiteralERKNS_15HPACKHeaderNameEN5folly5RangeIPKcEEjRKNS_5HPACK11InstructionEE8vlocal__, align 8
  %cmp = icmp eq ptr %0, null
  br i1 %cmp, label %cond.true, label %cond.end

cond.true:                                        ; preds = %if.then
  %call = tail call noundef zeroext i1 @_ZN6google11InitVLOG3__EPNS_8SiteFlagEPiPKci(ptr noundef nonnull @_ZZN8proxygen12HPACKEncoder13encodeLiteralERKNS_15HPACKHeaderNameEN5folly5RangeIPKcEEjRKNS_5HPACK11InstructionEE8vlocal__, ptr noundef nonnull @_ZN3fLI7FLAGS_vE, ptr noundef nonnull @.str.1, i32 noundef 10)
  br i1 %call, label %cond.false5, label %cleanup.done

cond.end:                                         ; preds = %if.then
  %1 = load i32, ptr %0, align 4
  %cmp2 = icmp sgt i32 %1, 9
  br i1 %cmp2, label %cond.false5, label %cleanup.done

cond.false5:                                      ; preds = %cond.true, %cond.end
  call void @_ZN6google10LogMessageC1EPKci(ptr noundef nonnull align 8 dereferenceable(96) %ref.tmp6, ptr noundef nonnull @.str.1, i32 noundef 132)
  %call7 = invoke noundef nonnull align 8 dereferenceable(8) ptr @_ZN6google10LogMessage6streamEv(ptr noundef nonnull align 8 dereferenceable(96) %ref.tmp6)
          to label %invoke.cont unwind label %lpad

invoke.cont:                                      ; preds = %cond.false5
  %call9 = invoke noundef nonnull align 8 dereferenceable(8) ptr @_ZStlsISt11char_traitsIcEERSt13basic_ostreamIcT_ES5_PKc(ptr noundef nonnull align 8 dereferenceable(8) %call7, ptr noundef nonnull @.str.5)
          to label %invoke.cont8 unwind label %lpad

invoke.cont8:                                     ; preds = %invoke.cont
  %call11 = invoke noundef nonnull align 8 dereferenceable(8) ptr @_ZNSolsEj(ptr noundef nonnull align 8 dereferenceable(8) %call9, i32 noundef %nameIndex)
          to label %cleanup.action unwind label %lpad

cleanup.action:                                   ; preds = %invoke.cont8
  call void @_ZN6google10LogMessageD1Ev(ptr noundef nonnull align 8 dereferenceable(96) %ref.tmp6) #22
  br label %cleanup.done

cleanup.done:                                     ; preds = %cond.true, %cond.end, %cleanup.action
  %streamBuffer_ = getelementptr inbounds i8, ptr %this, i64 8
  %conv = zext i32 %nameIndex to i64
  %call17 = call noundef i32 @_ZN8proxygen17HPACKEncodeBuffer13encodeIntegerEmRKNS_5HPACK11InstructionE(ptr noundef nonnull align 8 dereferenceable(132) %streamBuffer_, i64 noundef %conv, ptr noundef nonnull align 1 dereferenceable(2) %instruction)
  br label %if.end

lpad:                                             ; preds = %invoke.cont8, %invoke.cont, %cond.false5
  %2 = landingpad { ptr, i32 }
          cleanup
  call void @_ZN6google10LogMessageD1Ev(ptr noundef nonnull align 8 dereferenceable(96) %ref.tmp6) #22
  resume { ptr, i32 } %2

if.else:                                          ; preds = %entry
  %streamBuffer_18 = getelementptr inbounds i8, ptr %this, i64 8
  %call19 = tail call noundef i32 @_ZN8proxygen17HPACKEncodeBuffer13encodeIntegerEmRKNS_5HPACK11InstructionE(ptr noundef nonnull align 8 dereferenceable(132) %streamBuffer_18, i64 noundef 0, ptr noundef nonnull align 1 dereferenceable(2) %instruction)
  %3 = load ptr, ptr %name, align 8
  %call.i = tail call noundef ptr @_ZNKSt7__cxx1112basic_stringIcSt11char_traitsIcESaIcEE4dataEv(ptr noundef nonnull align 8 dereferenceable(32) %3) #22
  %call3.i = tail call noundef i64 @_ZNKSt7__cxx1112basic_stringIcSt11char_traitsIcESaIcEE4sizeEv(ptr noundef nonnull align 8 dereferenceable(32) %3) #22
  %add.ptr.i = getelementptr inbounds i8, ptr %call.i, i64 %call3.i
  %call22 = tail call noundef i32 @_ZN8proxygen17HPACKEncodeBuffer13encodeLiteralEN5folly5RangeIPKcEE(ptr noundef nonnull align 8 dereferenceable(132) %streamBuffer_18, ptr %call.i, ptr %add.ptr.i)
  br label %if.end

if.end:                                           ; preds = %if.else, %cleanup.done
  %streamBuffer_23 = getelementptr inbounds i8, ptr %this, i64 8
  %call25 = call noundef i32 @_ZN8proxygen17HPACKEncodeBuffer13encodeLiteralEN5folly5RangeIPKcEE(ptr noundef nonnull align 8 dereferenceable(132) %streamBuffer_23, ptr %value.coerce0, ptr %value.coerce1)
  ret void
}